(iconfig
Config
p0
(dp1
S'use_vertical_flips'
p2
I01
sS'verbose'
p3
I01
sS'classifier_regr_std'
p4
(lp5
F8.0
aF8.0
aF4.0
aF4.0
asS'classifier_min_overlap'
p6
F0.1
sS'rot_90'
p7
I01
sS'class_mapping'
p8
(dp9
S'Pedestrian'
p10
I0
sS'bg'
p11
I2
sS'Vehicle'
p12
I1
ssS'use_horizontal_flips'
p13
I01
sS'rpn_max_overlap'
p14
F0.7
sS'network'
p15
S'vgg'
p16
sS'img_channel_mean'
p17
(lp18
F103.939
aF116.779
aF123.68
asS'balanced_classes'
p19
I00
sS'anchor_box_ratios'
p20
(lp21
(lp22
I1
aI1
aa(lp23
F0.7071067811865475
aF1.414213562373095
aa(lp24
F1.414213562373095
aF0.7071067811865475
aasS'img_scaling_factor'
p25
F1.0
sS'rpn_stride'
p26
I16
sS'num_rois'
p27
I4
sS'base_net_weights'
p28
S'/home/benan/Detektion2/Model/vgg16_weights.h5'
p29
sS'anchor_box_scales'
p30
(lp31
I64
aI128
aI256
asS'rpn_min_overlap'
p32
F0.3
sS'model_path'
p33
S'/home/benan/Detektion2/Model/model_frcnn_vgg.hdf5'
p34
sS'classifier_max_overlap'
p35
F0.5
sS'std_scaling'
p36
F4.0
sS'im_size'
p37
I300
sb.